; Function Attrs: mustprogress nounwind uwtable
define hidden noundef i32 @_ZN14JfrOSInterface18JfrOSInterfaceImpl17cpu_loads_processEPdS1_S1_(ptr nocapture noundef nonnull align 8 dereferenceable(32) %0, ptr noundef %1, ptr noundef %2, ptr noundef %3) local_unnamed_addr #1 align 2 {
  %5 = tail call noundef ptr @_ZN14JfrOSInterface18JfrOSInterfaceImpl18cpu_perf_interfaceEv(ptr noundef nonnull align 8 dereferenceable(32) %0)
  %6 = icmp eq ptr %5, null
  br i1 %6, label %9, label %7

7:                                                ; preds = %4
  %8 = tail call noundef i32 @_ZNK23CPUPerformanceInterface17cpu_loads_processEPdS0_S0_(ptr noundef nonnull align 8 dereferenceable(8) %5, ptr noundef %1, ptr noundef %2, ptr noundef %3) #14
  br label %9

9:                                                ; preds = %4, %7
  %10 = phi i32 [ %8, %7 ], [ -1, %4 ]
  ret i32 %10
}